; ModuleID = '19/1190.c'
source_filename = "19/1190.c"
target datalayout = "e-m:e-p270:32:32-p271:32:32-p272:64:64-i64:64-f80:128-n8:16:32:64-S128"
target triple = "x86_64-pc-linux-gnu"

@.str = private unnamed_addr constant [5 x i8] c"%s%s\00", align 1
@.str.1 = private unnamed_addr constant [3 x i8] c"%s\00", align 1
@.str.2 = private unnamed_addr constant [4 x i8] c" %s\00", align 1

; Function Attrs: noinline nounwind uwtable
define dso_local void @main() #0 {
  %1 = alloca i8*, align 8
  %2 = alloca i8*, align 8
  %3 = alloca i8*, align 8
  %4 = alloca [101 x i8]*, align 8
  %5 = alloca i32, align 4
  %6 = alloca i32, align 4
  %7 = alloca i32, align 4
  store i32 0, i32* %6, align 4
  store i32 0, i32* %7, align 4
  %8 = call noalias i8* @malloc(i64 101) #4
  store i8* %8, i8** %1, align 8
  %9 = call noalias i8* @malloc(i64 101) #4
  store i8* %9, i8** %2, align 8
  %10 = call noalias i8* @malloc(i64 101) #4
  store i8* %10, i8** %3, align 8
  %11 = call noalias i8* @calloc(i64 101, i64 101) #4
  %12 = bitcast i8* %11 to [101 x i8]*
  store [101 x i8]* %12, [101 x i8]** %4, align 8
  %13 = load i8*, i8** %1, align 8
  %14 = call i32 (i8*, ...) bitcast (i32 (...)* @gets to i32 (i8*, ...)*)(i8* %13)
  %15 = load i8*, i8** %2, align 8
  %16 = load i8*, i8** %3, align 8
  %17 = call i32 (i8*, ...) @__isoc99_scanf(i8* getelementptr inbounds ([5 x i8], [5 x i8]* @.str, i64 0, i64 0), i8* %15, i8* %16)
  store i32 0, i32* %5, align 4
  br label %18

18:                                               ; preds = %63, %0
  %19 = load i8*, i8** %1, align 8
  %20 = load i32, i32* %5, align 4
  %21 = sext i32 %20 to i64
  %22 = getelementptr inbounds i8, i8* %19, i64 %21
  %23 = load i8, i8* %22, align 1
  %24 = sext i8 %23 to i32
  %25 = icmp ne i32 %24, 0
  br i1 %25, label %26, label %66

26:                                               ; preds = %18
  %27 = load i8*, i8** %1, align 8
  %28 = load i32, i32* %5, align 4
  %29 = sext i32 %28 to i64
  %30 = getelementptr inbounds i8, i8* %27, i64 %29
  %31 = load i8, i8* %30, align 1
  %32 = sext i8 %31 to i32
  %33 = icmp eq i32 %32, 32
  br i1 %33, label %34, label %37

34:                                               ; preds = %26
  %35 = load i32, i32* %7, align 4
  %36 = add nsw i32 %35, 1
  store i32 %36, i32* %7, align 4
  store i32 0, i32* %6, align 4
  br label %62

37:                                               ; preds = %26
  %38 = load i8*, i8** %1, align 8
  %39 = load i32, i32* %5, align 4
  %40 = sext i32 %39 to i64
  %41 = getelementptr inbounds i8, i8* %38, i64 %40
  %42 = load i8, i8* %41, align 1
  %43 = sext i8 %42 to i32
  %44 = icmp ne i32 %43, 32
  br i1 %44, label %45, label %61

45:                                               ; preds = %37
  %46 = load i8*, i8** %1, align 8
  %47 = load i32, i32* %5, align 4
  %48 = sext i32 %47 to i64
  %49 = getelementptr inbounds i8, i8* %46, i64 %48
  %50 = load i8, i8* %49, align 1
  %51 = load [101 x i8]*, [101 x i8]** %4, align 8
  %52 = load i32, i32* %7, align 4
  %53 = sext i32 %52 to i64
  %54 = getelementptr inbounds [101 x i8], [101 x i8]* %51, i64 %53
  %55 = getelementptr inbounds [101 x i8], [101 x i8]* %54, i64 0, i64 0
  %56 = load i32, i32* %6, align 4
  %57 = sext i32 %56 to i64
  %58 = getelementptr inbounds i8, i8* %55, i64 %57
  store i8 %50, i8* %58, align 1
  %59 = load i32, i32* %6, align 4
  %60 = add nsw i32 %59, 1
  store i32 %60, i32* %6, align 4
  br label %61

61:                                               ; preds = %45, %37
  br label %62

62:                                               ; preds = %61, %34
  br label %63

63:                                               ; preds = %62
  %64 = load i32, i32* %5, align 4
  %65 = add nsw i32 %64, 1
  store i32 %65, i32* %5, align 4
  br label %18

66:                                               ; preds = %18
  store i32 0, i32* %5, align 4
  br label %67

67:                                               ; preds = %89, %66
  %68 = load i32, i32* %5, align 4
  %69 = load i32, i32* %7, align 4
  %70 = icmp sle i32 %68, %69
  br i1 %70, label %71, label %92

71:                                               ; preds = %67
  %72 = load [101 x i8]*, [101 x i8]** %4, align 8
  %73 = load i32, i32* %5, align 4
  %74 = sext i32 %73 to i64
  %75 = getelementptr inbounds [101 x i8], [101 x i8]* %72, i64 %74
  %76 = getelementptr inbounds [101 x i8], [101 x i8]* %75, i64 0, i64 0
  %77 = load i8*, i8** %2, align 8
  %78 = call i32 @strcmp(i8* %76, i8* %77) #5
  %79 = icmp eq i32 %78, 0
  br i1 %79, label %80, label %88

80:                                               ; preds = %71
  %81 = load [101 x i8]*, [101 x i8]** %4, align 8
  %82 = load i32, i32* %5, align 4
  %83 = sext i32 %82 to i64
  %84 = getelementptr inbounds [101 x i8], [101 x i8]* %81, i64 %83
  %85 = getelementptr inbounds [101 x i8], [101 x i8]* %84, i64 0, i64 0
  %86 = load i8*, i8** %3, align 8
  %87 = call i8* @strcpy(i8* %85, i8* %86) #4
  br label %88

88:                                               ; preds = %80, %71
  br label %89

89:                                               ; preds = %88
  %90 = load i32, i32* %5, align 4
  %91 = add nsw i32 %90, 1
  store i32 %91, i32* %5, align 4
  br label %67

92:                                               ; preds = %67
  %93 = load [101 x i8]*, [101 x i8]** %4, align 8
  %94 = getelementptr inbounds [101 x i8], [101 x i8]* %93, i64 0, i64 0
  %95 = call i32 (i8*, ...) @printf(i8* getelementptr inbounds ([3 x i8], [3 x i8]* @.str.1, i64 0, i64 0), i8* %94)
  store i32 1, i32* %5, align 4
  br label %96

96:                                               ; preds = %107, %92
  %97 = load i32, i32* %5, align 4
  %98 = load i32, i32* %7, align 4
  %99 = icmp sle i32 %97, %98
  br i1 %99, label %100, label %110

100:                                              ; preds = %96
  %101 = load [101 x i8]*, [101 x i8]** %4, align 8
  %102 = load i32, i32* %5, align 4
  %103 = sext i32 %102 to i64
  %104 = getelementptr inbounds [101 x i8], [101 x i8]* %101, i64 %103
  %105 = getelementptr inbounds [101 x i8], [101 x i8]* %104, i64 0, i64 0
  %106 = call i32 (i8*, ...) @printf(i8* getelementptr inbounds ([4 x i8], [4 x i8]* @.str.2, i64 0, i64 0), i8* %105)
  br label %107

107:                                              ; preds = %100
  %108 = load i32, i32* %5, align 4
  %109 = add nsw i32 %108, 1
  store i32 %109, i32* %5, align 4
  br label %96

110:                                              ; preds = %96
  ret void
}

; Function Attrs: nounwind
declare dso_local noalias i8* @malloc(i64) #1

; Function Attrs: nounwind
declare dso_local noalias i8* @calloc(i64, i64) #1

declare dso_local i32 @gets(...) #2

declare dso_local i32 @__isoc99_scanf(i8*, ...) #2

; Function Attrs: nounwind readonly
declare dso_local i32 @strcmp(i8*, i8*) #3

; Function Attrs: nounwind
declare dso_local i8* @strcpy(i8*, i8*) #1

declare dso_local i32 @printf(i8*, ...) #2


!llvm.module.flags = !{!0}
!llvm.ident = !{!1}

!0 = !{i32 1, !"wchar_size", i32 4}
!1 = !{!"clang version 10.0.0-4ubuntu1 "}
